target datalayout = "e-m:e-p270:32:32-p271:32:32-p272:64:64-i64:64-i128:128-f80:128-n8:16:32:64-S128"
target triple = "x86_64-pc-linux-gnu"

%struct.Qureg = type { i32, i32, i32, i64, i64, i32, i32, %struct.ComplexArray, %struct.ComplexArray, %struct.ComplexArray, ptr, ptr, ptr, ptr, ptr, ptr }
%struct.ComplexArray = type { ptr, ptr }
%struct.QuESTEnv = type { i32, i32, ptr, i32, ptr }

; Function Attrs: nounwind uwtable
define void @QuESTAssert(i32 noundef %0, i32 noundef %1, ptr noundef %2) #0 {
  %4 = alloca i32, align 4
  %5 = alloca i32, align 4
  %6 = alloca ptr, align 8
  store i32 %0, ptr %4, align 4, !tbaa !9
  store i32 %1, ptr %5, align 4, !tbaa !9
  store ptr %2, ptr %6, align 8, !tbaa !4
  %7 = load i32, ptr %4, align 4, !tbaa !9
  %8 = icmp ne i32 %7, 0
  br i1 %8, label %15, label %9

9:                                                ; preds = %3
  %10 = load i32, ptr %5, align 4, !tbaa !9
  %11 = zext i32 %10 to i64
  %12 = getelementptr inbounds nuw [92 x ptr], ptr @errorMessages, i64 0, i64 %11
  %13 = load ptr, ptr %12, align 8, !tbaa !4
  %14 = load ptr, ptr %6, align 8, !tbaa !4
  call void @invalidQuESTInputError(ptr noundef %13, ptr noundef %14)
  br label %15

15:                                               ; preds = %9, %3
  ret void
}

; Function Attrs: nounwind uwtable
define void @validateQuregAllocation(ptr noundef %0, ptr noundef byval(%struct.QuESTEnv) align 8 %1, ptr noundef %2) #0 {
  %4 = alloca ptr, align 8
  %5 = alloca ptr, align 8
  %6 = alloca i32, align 4
  store ptr %0, ptr %4, align 8, !tbaa !59
  store ptr %2, ptr %5, align 8, !tbaa !4
  call void @llvm.lifetime.start.p0(i64 4, ptr %6) #7
  store i32 1, ptr %6, align 4, !tbaa !9
  %7 = load ptr, ptr %4, align 8, !tbaa !59
  %8 = getelementptr inbounds nuw %struct.Qureg, ptr %7, i32 0, i32 3
  %9 = load i64, ptr %8, align 8, !tbaa !46
  %10 = icmp ne i64 %9, 0
  br i1 %10, label %11, label %50

11:                                               ; preds = %3
  %12 = load ptr, ptr %4, align 8, !tbaa !59
  %13 = getelementptr inbounds nuw %struct.Qureg, ptr %12, i32 0, i32 7
  %14 = getelementptr inbounds nuw %struct.ComplexArray, ptr %13, i32 0, i32 0
  %15 = load ptr, ptr %14, align 8, !tbaa !61
  %16 = icmp ne ptr %15, null
  br i1 %16, label %17, label %23

17:                                               ; preds = %11
  %18 = load ptr, ptr %4, align 8, !tbaa !59
  %19 = getelementptr inbounds nuw %struct.Qureg, ptr %18, i32 0, i32 7
  %20 = getelementptr inbounds nuw %struct.ComplexArray, ptr %19, i32 0, i32 1
  %21 = load ptr, ptr %20, align 8, !tbaa !62
  %22 = icmp ne ptr %21, null
  br label %23

23:                                               ; preds = %17, %11
  %24 = phi i1 [ false, %11 ], [ %22, %17 ]
  %25 = zext i1 %24 to i32
  %26 = load i32, ptr %6, align 4, !tbaa !9
  %27 = and i32 %26, %25
  store i32 %27, ptr %6, align 4, !tbaa !9
  %28 = load ptr, ptr %4, align 8, !tbaa !59
  %29 = getelementptr inbounds nuw %struct.Qureg, ptr %28, i32 0, i32 6
  %30 = load i32, ptr %29, align 4, !tbaa !63
  %31 = icmp sgt i32 %30, 1
  br i1 %31, label %32, label %49

32:                                               ; preds = %23
  %33 = load ptr, ptr %4, align 8, !tbaa !59
  %34 = getelementptr inbounds nuw %struct.Qureg, ptr %33, i32 0, i32 8
  %35 = getelementptr inbounds nuw %struct.ComplexArray, ptr %34, i32 0, i32 0
  %36 = load ptr, ptr %35, align 8, !tbaa !64
  %37 = icmp ne ptr %36, null
  br i1 %37, label %38, label %44

38:                                               ; preds = %32
  %39 = load ptr, ptr %4, align 8, !tbaa !59
  %40 = getelementptr inbounds nuw %struct.Qureg, ptr %39, i32 0, i32 8
  %41 = getelementptr inbounds nuw %struct.ComplexArray, ptr %40, i32 0, i32 1
  %42 = load ptr, ptr %41, align 8, !tbaa !65
  %43 = icmp ne ptr %42, null
  br label %44

44:                                               ; preds = %38, %32
  %45 = phi i1 [ false, %32 ], [ %43, %38 ]
  %46 = zext i1 %45 to i32
  %47 = load i32, ptr %6, align 4, !tbaa !9
  %48 = and i32 %47, %46
  store i32 %48, ptr %6, align 4, !tbaa !9
  br label %49

49:                                               ; preds = %44, %23
  br label %50

50:                                               ; preds = %49, %3
  %51 = load i32, ptr %6, align 4, !tbaa !9
  %52 = icmp ne i32 %51, 0
  br i1 %52, label %67, label %53

53:                                               ; preds = %50
  %54 = load ptr, ptr %4, align 8, !tbaa !59
  call void @destroyQureg(ptr noundef byval(%struct.Qureg) align 8 %54, ptr noundef byval(%struct.QuESTEnv) align 8 %1)
  %55 = load ptr, ptr %4, align 8, !tbaa !59
  %56 = getelementptr inbounds nuw %struct.Qureg, ptr %55, i32 0, i32 7
  %57 = getelementptr inbounds nuw %struct.ComplexArray, ptr %56, i32 0, i32 0
  store ptr null, ptr %57, align 8, !tbaa !61
  %58 = load ptr, ptr %4, align 8, !tbaa !59
  %59 = getelementptr inbounds nuw %struct.Qureg, ptr %58, i32 0, i32 7
  %60 = getelementptr inbounds nuw %struct.ComplexArray, ptr %59, i32 0, i32 1
  store ptr null, ptr %60, align 8, !tbaa !62
  %61 = load ptr, ptr %4, align 8, !tbaa !59
  %62 = getelementptr inbounds nuw %struct.Qureg, ptr %61, i32 0, i32 8
  %63 = getelementptr inbounds nuw %struct.ComplexArray, ptr %62, i32 0, i32 0
  store ptr null, ptr %63, align 8, !tbaa !64
  %64 = load ptr, ptr %4, align 8, !tbaa !59
  %65 = getelementptr inbounds nuw %struct.Qureg, ptr %64, i32 0, i32 8
  %66 = getelementptr inbounds nuw %struct.ComplexArray, ptr %65, i32 0, i32 1
  store ptr null, ptr %66, align 8, !tbaa !65
  br label %67

67:                                               ; preds = %53, %50
  %68 = load i32, ptr %6, align 4, !tbaa !9
  %69 = load ptr, ptr %5, align 8, !tbaa !4
  call void @QuESTAssert(i32 noundef %68, i32 noundef 85, ptr noundef %69)
  call void @llvm.lifetime.end.p0(i64 4, ptr %6) #7
  ret void
}