; Function Attrs: nounwind uwtable
define void @validateQuregAllocation(ptr noundef captures(none) %0, ptr noundef readonly byval(%struct.QuESTEnv) align 8 captures(none) %1, ptr noundef %2) local_unnamed_addr #3 {
  %4 = getelementptr inbounds nuw i8, ptr %0, i64 16
  %5 = load i64, ptr %4, align 8, !tbaa !31
  %.not = icmp eq i64 %5, 0
  br i1 %.not, label %.split, label %6

6:                                                ; preds = %3
  %7 = getelementptr inbounds nuw i8, ptr %0, i64 40
  %8 = load ptr, ptr %7, align 8, !tbaa !39
  %.not17 = icmp eq ptr %8, null
  br i1 %.not17, label %14, label %9

9:                                                ; preds = %6
  %10 = getelementptr inbounds nuw i8, ptr %0, i64 48
  %11 = load ptr, ptr %10, align 8, !tbaa !40
  %12 = icmp ne ptr %11, null
  %13 = zext i1 %12 to i32
  br label %14

14:                                               ; preds = %9, %6
  %15 = phi i32 [ 0, %6 ], [ %13, %9 ]
  %16 = getelementptr inbounds nuw i8, ptr %0, i64 36
  %17 = load i32, ptr %16, align 4, !tbaa !41
  %18 = icmp sgt i32 %17, 1
  br i1 %18, label %19, label %30

19:                                               ; preds = %14
  %20 = getelementptr inbounds nuw i8, ptr %0, i64 56
  %21 = load ptr, ptr %20, align 8, !tbaa !42
  %.not18 = icmp eq ptr %21, null
  br i1 %.not18, label %27, label %22

22:                                               ; preds = %19
  %23 = getelementptr inbounds nuw i8, ptr %0, i64 64
  %24 = load ptr, ptr %23, align 8, !tbaa !43
  %25 = icmp ne ptr %24, null
  %26 = zext i1 %25 to i32
  br label %27

27:                                               ; preds = %22, %19
  %28 = phi i32 [ 0, %19 ], [ %26, %22 ]
  %29 = and i32 %28, %15
  br label %30

30:                                               ; preds = %14, %27
  %.0 = phi i32 [ %29, %27 ], [ %15, %14 ]
  %.not19 = icmp eq i32 %.0, 0
  br i1 %.not19, label %.split16, label %.split

.split16:                                         ; preds = %30
  tail call void @destroyQureg(ptr noundef nonnull byval(%struct.Qureg) align 8 %0, ptr noundef nonnull byval(%struct.QuESTEnv) align 8 %1) #14
  tail call void @llvm.memset.p0.i64(ptr noundef nonnull align 8 dereferenceable(32) %7, i8 0, i64 32, i1 false)
  tail call void @invalidQuESTInputError(ptr noundef nonnull @.str.87, ptr noundef %2)
  br label %.split

.split:                                           ; preds = %3, %30, %.split16
  ret void
}